target datalayout = "e-m:e-p270:32:32-p271:32:32-p272:64:64-i64:64-i128:128-f80:128-n8:16:32:64-S128"
target triple = "x86_64-pc-linux-gnu"

%struct._zend_phar_globals = type { %struct._zend_array, %struct._zend_array, ptr, %struct._zend_array, i32, i32, ptr, i32, i32, i32, i32, i8, i8, i8, i32, i32, i32, i32, ptr, ptr, ptr, ptr, ptr, ptr, ptr, ptr, ptr, ptr, ptr, ptr, ptr, ptr, ptr, ptr, ptr, ptr, ptr, ptr, ptr, ptr, ptr, i32, i32, ptr, i32, ptr, i32, ptr, i32, ptr, %struct._zend_array }
%struct._zend_array = type { %struct._zend_refcounted_h, %union.anon.0, i32, %union.anon.1, i32, i32, i32, i32, i64, ptr }
%struct._zend_refcounted_h = type { i32, %union.anon }
%union.anon = type { i32 }
%union.anon.0 = type { i32 }
%union.anon.1 = type { ptr }
%struct._zval_struct = type { %union._zend_value, %union.anon.3, %union.anon.6 }
%union._zend_value = type { i64 }
%union.anon.3 = type { i32 }
%union.anon.6 = type { i32 }
%struct._phar_archive_data = type { ptr, i32, ptr, i32, ptr, i32, [12 x i8], i64, i64, %struct._zend_array, %struct._zend_array, %struct._zend_array, i32, i32, i32, ptr, ptr, i32, i32, i32, ptr, %struct._phar_metadata_tracker, i32, i16 }
%struct._phar_metadata_tracker = type { %struct._zval_struct, ptr }

@phar_globals = hidden global %struct._zend_phar_globals zeroinitializer, align 8
@.str = private unnamed_addr constant [15 x i8] c".phar/stub.php\00", align 1
@.str.1 = private unnamed_addr constant [90 x i8] c"'%s' is not a phar archive. Use PharData::__construct() for a standard zip or tar archive\00", align 1

; Function Attrs: nounwind uwtable
define hidden i32 @phar_open_parsed_phar(ptr noundef %0, i64 noundef %1, ptr noundef %2, i64 noundef %3, i1 noundef zeroext %4, i32 noundef %5, ptr noundef %6, ptr noundef %7) #0 {
  %9 = alloca ptr, align 8
  %10 = alloca ptr, align 8
  %11 = alloca ptr, align 8
  %12 = alloca i64, align 8
  %13 = alloca ptr, align 8
  %14 = alloca i32, align 4
  %15 = alloca ptr, align 8
  %16 = alloca i64, align 8
  %17 = alloca ptr, align 8
  %18 = alloca i64, align 8
  %19 = alloca i8, align 1
  %20 = alloca i32, align 4
  %21 = alloca ptr, align 8
  %22 = alloca ptr, align 8
  %23 = alloca ptr, align 8
  %24 = alloca ptr, align 8
  store ptr %0, ptr %15, align 8
  store i64 %1, ptr %16, align 8
  store ptr %2, ptr %17, align 8
  store i64 %3, ptr %18, align 8
  %25 = zext i1 %4 to i8
  store i8 %25, ptr %19, align 1
  store i32 %5, ptr %20, align 4
  store ptr %6, ptr %21, align 8
  store ptr %7, ptr %22, align 8
  %26 = load ptr, ptr %22, align 8
  %27 = icmp ne ptr %26, null
  br i1 %27, label %28, label %30

28:                                               ; preds = %8
  %29 = load ptr, ptr %22, align 8
  store ptr null, ptr %29, align 8
  br label %30

30:                                               ; preds = %28, %8
  %31 = load ptr, ptr %15, align 8
  %32 = load i64, ptr %16, align 8
  %33 = load ptr, ptr %17, align 8
  %34 = load i64, ptr %18, align 8
  %35 = load ptr, ptr %22, align 8
  %36 = call i32 @phar_get_archive(ptr noundef %23, ptr noundef %31, i64 noundef %32, ptr noundef %33, i64 noundef %34, ptr noundef %35)
  %37 = icmp eq i32 0, %36
  br i1 %37, label %38, label %130

38:                                               ; preds = %30
  %39 = load ptr, ptr %17, align 8
  %40 = icmp ne ptr %39, null
  br i1 %40, label %41, label %56

41:                                               ; preds = %38
  %42 = load i64, ptr %16, align 8
  %43 = load ptr, ptr %23, align 8
  %44 = getelementptr inbounds %struct._phar_archive_data, ptr %43, i32 0, i32 1
  %45 = load i32, ptr %44, align 8
  %46 = zext i32 %45 to i64
  %47 = icmp eq i64 %42, %46
  br i1 %47, label %48, label %56

48:                                               ; preds = %41
  %49 = load ptr, ptr %15, align 8
  %50 = load ptr, ptr %23, align 8
  %51 = getelementptr inbounds %struct._phar_archive_data, ptr %50, i32 0, i32 0
  %52 = load ptr, ptr %51, align 8
  %53 = load i64, ptr %16, align 8
  %54 = call i32 @strncmp(ptr noundef %49, ptr noundef %52, i64 noundef %53) #14
  %55 = icmp ne i32 %54, 0
  br i1 %55, label %56, label %59

56:                                               ; preds = %48, %41, %38
  %57 = load ptr, ptr %17, align 8
  %58 = icmp ne ptr %57, null
  br i1 %58, label %130, label %59

59:                                               ; preds = %56, %48
  %60 = load i8, ptr %19, align 1
  %61 = trunc i8 %60 to i1
  br i1 %61, label %123, label %62

62:                                               ; preds = %59
  %63 = load ptr, ptr %23, align 8
  %64 = getelementptr inbounds %struct._phar_archive_data, ptr %63, i32 0, i32 8
  %65 = load i64, ptr %64, align 8
  %66 = icmp ne i64 %65, 0
  br i1 %66, label %122, label %67

67:                                               ; preds = %62
  %68 = load ptr, ptr %23, align 8
  %69 = getelementptr inbounds %struct._phar_archive_data, ptr %68, i32 0, i32 23
  %70 = load i16, ptr %69, align 4
  %71 = lshr i16 %70, 3
  %72 = and i16 %71, 1
  %73 = zext i16 %72 to i32
  %74 = icmp ne i32 %73, 0
  br i1 %74, label %122, label %75

75:                                               ; preds = %67
  %76 = load ptr, ptr %23, align 8
  %77 = getelementptr inbounds %struct._phar_archive_data, ptr %76, i32 0, i32 23
  %78 = load i16, ptr %77, align 4
  %79 = lshr i16 %78, 6
  %80 = and i16 %79, 1
  %81 = zext i16 %80 to i32
  %82 = icmp ne i32 %81, 0
  br i1 %82, label %91, label %83

83:                                               ; preds = %75
  %84 = load ptr, ptr %23, align 8
  %85 = getelementptr inbounds %struct._phar_archive_data, ptr %84, i32 0, i32 23
  %86 = load i16, ptr %85, align 4
  %87 = lshr i16 %86, 5
  %88 = and i16 %87, 1
  %89 = zext i16 %88 to i32
  %90 = icmp ne i32 %89, 0
  br i1 %90, label %91, label %122

91:                                               ; preds = %83, %75
  %92 = load i32, ptr getelementptr inbounds (%struct._zend_phar_globals, ptr @phar_globals, i32 0, i32 5), align 4
  %93 = icmp ne i32 %92, 0
  br i1 %93, label %94, label %121

94:                                               ; preds = %91
  %95 = load ptr, ptr %23, align 8
  %96 = getelementptr inbounds %struct._phar_archive_data, ptr %95, i32 0, i32 9
  store ptr %96, ptr %10, align 8
  store ptr @.str, ptr %11, align 8
  store i64 14, ptr %12, align 8
  %97 = load ptr, ptr %10, align 8
  %98 = load ptr, ptr %11, align 8
  %99 = load i64, ptr %12, align 8
  %100 = call ptr @zend_hash_str_find(ptr noundef %97, ptr noundef %98, i64 noundef %99) #13
  store ptr %100, ptr %13, align 8
  %101 = load ptr, ptr %13, align 8
  %102 = icmp ne ptr %101, null
  br i1 %102, label %103, label %109

103:                                              ; preds = %94
  %104 = load ptr, ptr %13, align 8
  %105 = load ptr, ptr %104, align 8
  %106 = icmp ne ptr %105, null
  call void @llvm.assume(i1 %106)
  %107 = load ptr, ptr %13, align 8
  %108 = load ptr, ptr %107, align 8
  store ptr %108, ptr %9, align 8
  br label %110

109:                                              ; preds = %94
  store ptr null, ptr %9, align 8
  br label %110

110:                                              ; preds = %109, %103
  %111 = load ptr, ptr %9, align 8
  store ptr %111, ptr %24, align 8
  %112 = icmp eq ptr null, %111
  br i1 %112, label %113, label %121

113:                                              ; preds = %110
  %114 = load ptr, ptr %22, align 8
  %115 = icmp ne ptr %114, null
  br i1 %115, label %116, label %120

116:                                              ; preds = %113
  %117 = load ptr, ptr %22, align 8
  %118 = load ptr, ptr %15, align 8
  %119 = call i64 (ptr, i64, ptr, ...) @zend_spprintf(ptr noundef %117, i64 noundef 0, ptr noundef @.str.1, ptr noundef %118)
  br label %120

120:                                              ; preds = %116, %113
  store i32 -1, ptr %14, align 4
  br label %148

121:                                              ; preds = %110, %91
  br label %122

122:                                              ; preds = %121, %83, %67, %62
  br label %123

123:                                              ; preds = %122, %59
  %124 = load ptr, ptr %21, align 8
  %125 = icmp ne ptr %124, null
  br i1 %125, label %126, label %129

126:                                              ; preds = %123
  %127 = load ptr, ptr %23, align 8
  %128 = load ptr, ptr %21, align 8
  store ptr %127, ptr %128, align 8
  br label %129

129:                                              ; preds = %126, %123
  store i32 0, ptr %14, align 4
  br label %148

130:                                              ; preds = %56, %30
  %131 = load ptr, ptr %21, align 8
  %132 = icmp ne ptr %131, null
  br i1 %132, label %133, label %135

133:                                              ; preds = %130
  %134 = load ptr, ptr %21, align 8
  store ptr null, ptr %134, align 8
  br label %135

135:                                              ; preds = %133, %130
  %136 = load ptr, ptr %23, align 8
  %137 = icmp ne ptr %136, null
  br i1 %137, label %138, label %147

138:                                              ; preds = %135
  %139 = load ptr, ptr %22, align 8
  %140 = icmp ne ptr %139, null
  br i1 %140, label %141, label %147

141:                                              ; preds = %138
  %142 = load i32, ptr %20, align 4
  %143 = and i32 %142, 8
  %144 = icmp ne i32 %143, 0
  br i1 %144, label %147, label %145

145:                                              ; preds = %141
  %146 = load ptr, ptr %22, align 8
  call void @_efree(ptr noundef %146)
  br label %147

147:                                              ; preds = %145, %141, %138, %135
  store i32 -1, ptr %14, align 4
  br label %148

148:                                              ; preds = %147, %129, %120
  %149 = load i32, ptr %14, align 4
  ret i32 %149
}