; Function Attrs: nounwind uwtable
define hidden noundef i32 @phar_open_parsed_phar(ptr noundef %0, i64 noundef %1, ptr noundef %2, i64 noundef %3, i1 noundef zeroext %4, i32 noundef %5, ptr noundef writeonly %6, ptr noundef %7) local_unnamed_addr #0 {
  %9 = alloca ptr, align 8
  %10 = icmp ne ptr %7, null
  br i1 %10, label %11, label %12

11:                                               ; preds = %8
  store ptr null, ptr %7, align 8
  br label %12

12:                                               ; preds = %11, %8
  %13 = call i32 @phar_get_archive(ptr noundef nonnull %9, ptr noundef %0, i64 noundef %1, ptr noundef %2, i64 noundef %3, ptr noundef %7) #23
  %14 = icmp eq i32 %13, 0
  br i1 %14, label %15, label %50

15:                                               ; preds = %12
  %.not = icmp eq ptr %2, null
  br i1 %.not, label %.critedge, label %16

16:                                               ; preds = %15
  %17 = load ptr, ptr %9, align 8
  %18 = getelementptr inbounds i8, ptr %17, i64 8
  %19 = load i32, ptr %18, align 8
  %20 = zext i32 %19 to i64
  %21 = icmp eq i64 %20, %1
  br i1 %21, label %22, label %50

22:                                               ; preds = %16
  %23 = load ptr, ptr %17, align 8
  %24 = call i32 @strncmp(ptr noundef %0, ptr noundef %23, i64 noundef %1) #24
  %.not43 = icmp eq i32 %24, 0
  br i1 %.not43, label %.critedge, label %50

.critedge:                                        ; preds = %15, %22
  br i1 %4, label %47, label %25

25:                                               ; preds = %.critedge
  %26 = load ptr, ptr %9, align 8
  %27 = getelementptr inbounds i8, ptr %26, i64 64
  %28 = load i64, ptr %27, align 8
  %.not44 = icmp eq i64 %28, 0
  br i1 %.not44, label %29, label %47

29:                                               ; preds = %25
  %30 = getelementptr inbounds i8, ptr %26, i64 324
  %31 = load i16, ptr %30, align 4
  %32 = and i16 %31, 8
  %.not45 = icmp eq i16 %32, 0
  br i1 %.not45, label %33, label %47

33:                                               ; preds = %29
  %34 = and i16 %31, 64
  %.not46 = icmp eq i16 %34, 0
  br i1 %.not46, label %35, label %40

35:                                               ; preds = %33
  %36 = and i16 %31, 32
  %37 = icmp ne i16 %36, 0
  %38 = load i32, ptr getelementptr inbounds (%struct._zend_phar_globals, ptr @phar_globals, i64 0, i32 5), align 4
  %39 = icmp ne i32 %38, 0
  %or.cond7 = select i1 %37, i1 %39, i1 false
  br i1 %or.cond7, label %41, label %47

40:                                               ; preds = %33
  %.old5 = load i32, ptr getelementptr inbounds (%struct._zend_phar_globals, ptr @phar_globals, i64 0, i32 5), align 4
  %.old6.not = icmp eq i32 %.old5, 0
  br i1 %.old6.not, label %47, label %41

41:                                               ; preds = %35, %40
  %42 = getelementptr inbounds i8, ptr %26, i64 72
  %43 = call ptr @zend_hash_str_find(ptr noundef nonnull %42, ptr noundef nonnull @.str, i64 noundef 14) #23
  %.not47 = icmp eq ptr %43, null
  br i1 %.not47, label %44, label %47

44:                                               ; preds = %41
  br i1 %10, label %45, label %58

45:                                               ; preds = %44
  %46 = call i64 (ptr, i64, ptr, ...) @zend_spprintf(ptr noundef nonnull %7, i64 noundef 0, ptr noundef nonnull @.str.1, ptr noundef %0) #23
  br label %58

47:                                               ; preds = %25, %29, %35, %41, %40, %.critedge
  %.not48 = icmp eq ptr %6, null
  br i1 %.not48, label %58, label %48

48:                                               ; preds = %47
  %49 = load ptr, ptr %9, align 8
  store ptr %49, ptr %6, align 8
  br label %58

50:                                               ; preds = %16, %22, %12
  %.not49 = icmp eq ptr %6, null
  br i1 %.not49, label %52, label %51

51:                                               ; preds = %50
  store ptr null, ptr %6, align 8
  br label %52

52:                                               ; preds = %51, %50
  %53 = load ptr, ptr %9, align 8
  %54 = icmp ne ptr %53, null
  %55 = and i32 %5, 8
  %.not50 = icmp eq i32 %55, 0
  %56 = and i1 %.not50, %54
  %or.cond = and i1 %10, %56
  br i1 %or.cond, label %57, label %58

57:                                               ; preds = %52
  call void @_efree(ptr noundef nonnull %7) #23
  br label %58

58:                                               ; preds = %52, %57, %47, %48, %44, %45
  %.037 = phi i32 [ -1, %45 ], [ -1, %44 ], [ 0, %48 ], [ 0, %47 ], [ -1, %57 ], [ -1, %52 ]
  ret i32 %.037
}